target datalayout = "e-m:e-p270:32:32-p271:32:32-p272:64:64-i64:64-i128:128-f80:128-n8:16:32:64-S128"
target triple = "x86_64-pc-linux-gnu"

%struct.Curl_llist_node = type { ptr, ptr, ptr, ptr }
%struct.Curl_llist = type { ptr, ptr, ptr, i64 }
%struct.CookieInfo = type { [63 x %struct.Curl_llist], i64, i32, i32, i8, i8 }
%struct.Cookie = type { %struct.Curl_llist_node, %struct.Curl_llist_node, ptr, ptr, ptr, ptr, ptr, i64, i32, i8 }

@Curl_cfree = external global ptr, align 8

; Function Attrs: nounwind uwtable
define internal void @freecookie(ptr noundef %0) #0 {
  %2 = alloca ptr, align 8
  store ptr %0, ptr %2, align 8, !tbaa !106
  %3 = load ptr, ptr @Curl_cfree, align 8, !tbaa !93
  %4 = load ptr, ptr %2, align 8, !tbaa !106
  %5 = getelementptr inbounds nuw %struct.Cookie, ptr %4, i32 0, i32 6
  %6 = load ptr, ptr %5, align 8, !tbaa !113
  call void %3(ptr noundef %6)
  %7 = load ptr, ptr @Curl_cfree, align 8, !tbaa !93
  %8 = load ptr, ptr %2, align 8, !tbaa !106
  %9 = getelementptr inbounds nuw %struct.Cookie, ptr %8, i32 0, i32 4
  %10 = load ptr, ptr %9, align 8, !tbaa !108
  call void %7(ptr noundef %10)
  %11 = load ptr, ptr @Curl_cfree, align 8, !tbaa !93
  %12 = load ptr, ptr %2, align 8, !tbaa !106
  %13 = getelementptr inbounds nuw %struct.Cookie, ptr %12, i32 0, i32 5
  %14 = load ptr, ptr %13, align 8, !tbaa !122
  call void %11(ptr noundef %14)
  %15 = load ptr, ptr @Curl_cfree, align 8, !tbaa !93
  %16 = load ptr, ptr %2, align 8, !tbaa !106
  %17 = getelementptr inbounds nuw %struct.Cookie, ptr %16, i32 0, i32 2
  %18 = load ptr, ptr %17, align 8, !tbaa !115
  call void %15(ptr noundef %18)
  %19 = load ptr, ptr @Curl_cfree, align 8, !tbaa !93
  %20 = load ptr, ptr %2, align 8, !tbaa !106
  %21 = getelementptr inbounds nuw %struct.Cookie, ptr %20, i32 0, i32 3
  %22 = load ptr, ptr %21, align 8, !tbaa !116
  call void %19(ptr noundef %22)
  %23 = load ptr, ptr @Curl_cfree, align 8, !tbaa !93
  %24 = load ptr, ptr %2, align 8, !tbaa !106
  call void %23(ptr noundef %24)
  ret void
}

; Function Attrs: nounwind uwtable
define dso_local void @Curl_cookie_clearall(ptr noundef %0) #0 {
  %2 = alloca ptr, align 8
  %3 = alloca i32, align 4
  %4 = alloca ptr, align 8
  %5 = alloca ptr, align 8
  %6 = alloca ptr, align 8
  store ptr %0, ptr %2, align 8, !tbaa !82
  %7 = load ptr, ptr %2, align 8, !tbaa !82
  %8 = icmp ne ptr %7, null
  br i1 %8, label %9, label %38

9:                                                ; preds = %1
  call void @llvm.lifetime.start.p0(i64 4, ptr %3) #6
  store i32 0, ptr %3, align 4, !tbaa !94
  br label %10

10:                                               ; preds = %32, %9
  %11 = load i32, ptr %3, align 4, !tbaa !94
  %12 = icmp ult i32 %11, 63
  br i1 %12, label %13, label %35

13:                                               ; preds = %10
  call void @llvm.lifetime.start.p0(i64 8, ptr %4) #6
  %14 = load ptr, ptr %2, align 8, !tbaa !82
  %15 = getelementptr inbounds nuw %struct.CookieInfo, ptr %14, i32 0, i32 0
  %16 = load i32, ptr %3, align 4, !tbaa !94
  %17 = zext i32 %16 to i64
  %18 = getelementptr inbounds nuw [63 x %struct.Curl_llist], ptr %15, i64 0, i64 %17
  %19 = call ptr @Curl_llist_head(ptr noundef %18)
  store ptr %19, ptr %4, align 8, !tbaa !125
  br label %20

20:                                               ; preds = %23, %13
  %21 = load ptr, ptr %4, align 8, !tbaa !125
  %22 = icmp ne ptr %21, null
  br i1 %22, label %23, label %31

23:                                               ; preds = %20
  call void @llvm.lifetime.start.p0(i64 8, ptr %5) #6
  %24 = load ptr, ptr %4, align 8, !tbaa !125
  %25 = call ptr @Curl_node_elem(ptr noundef %24)
  store ptr %25, ptr %5, align 8, !tbaa !106
  call void @llvm.lifetime.start.p0(i64 8, ptr %6) #6
  %26 = load ptr, ptr %4, align 8, !tbaa !125
  %27 = call ptr @Curl_node_next(ptr noundef %26)
  store ptr %27, ptr %6, align 8, !tbaa !125
  %28 = load ptr, ptr %4, align 8, !tbaa !125
  call void @Curl_node_remove(ptr noundef %28)
  %29 = load ptr, ptr %5, align 8, !tbaa !106
  call void @freecookie(ptr noundef %29)
  %30 = load ptr, ptr %6, align 8, !tbaa !125
  store ptr %30, ptr %4, align 8, !tbaa !125
  call void @llvm.lifetime.end.p0(i64 8, ptr %6) #6
  call void @llvm.lifetime.end.p0(i64 8, ptr %5) #6
  br label %20, !llvm.loop !137

31:                                               ; preds = %20
  call void @llvm.lifetime.end.p0(i64 8, ptr %4) #6
  br label %32

32:                                               ; preds = %31
  %33 = load i32, ptr %3, align 4, !tbaa !94
  %34 = add i32 %33, 1
  store i32 %34, ptr %3, align 4, !tbaa !94
  br label %10, !llvm.loop !138

35:                                               ; preds = %10
  %36 = load ptr, ptr %2, align 8, !tbaa !82
  %37 = getelementptr inbounds nuw %struct.CookieInfo, ptr %36, i32 0, i32 2
  store i32 0, ptr %37, align 8, !tbaa !117
  call void @llvm.lifetime.end.p0(i64 4, ptr %3) #6
  br label %38

38:                                               ; preds = %35, %1
  ret void
}